; Function Attrs: mustprogress nofree norecurse nosync nounwind willreturn memory(argmem: read) uwtable
define dso_local noundef zeroext i1 @_ZNK4llvm11GlobalValue27canBeOmittedFromSymbolTableEv(ptr nocapture noundef nonnull readonly align 8 dereferenceable(48) %0) local_unnamed_addr #0 align 2 {
  %2 = getelementptr inbounds nuw i8, ptr %0, i64 32
  %3 = load i32, ptr %2, align 8
  %4 = and i32 %3, 15
  %5 = icmp eq i32 %4, 3
  br i1 %5, label %6, label %17

6:                                                ; preds = %1
  %7 = and i32 %3, 192
  %8 = icmp eq i32 %7, 128
  br i1 %8, label %17, label %9

9:                                                ; preds = %6
  %10 = load i8, ptr %0, align 8
  %.not = icmp eq i8 %10, 3
  br i1 %.not, label %11, label %15

11:                                               ; preds = %9
  %12 = getelementptr inbounds nuw i8, ptr %0, i64 80
  %13 = load i8, ptr %12, align 8
  %14 = trunc i8 %13 to i1
  br i1 %14, label %15, label %17

15:                                               ; preds = %11, %9
  %16 = icmp ne i32 %7, 0
  br label %17

17:                                               ; preds = %11, %6, %1, %15
  %.0 = phi i1 [ %16, %15 ], [ false, %1 ], [ true, %6 ], [ false, %11 ]
  ret i1 %.0
}